target datalayout = "e-m:e-p270:32:32-p271:32:32-p272:64:64-i64:64-f80:128-n8:16:32:64-S128"
target triple = "x86_64-pc-linux-gnu"

@.str = private unnamed_addr constant [3 x i8] c"%c\00", align 1
@.str.1 = private unnamed_addr constant [2 x i8] c"\0A\00", align 1

; Function Attrs: noinline nounwind uwtable
define dso_local void @main() #0 {
  %1 = alloca i32, align 4
  %2 = alloca i32, align 4
  %3 = alloca i32, align 4
  %4 = alloca i32, align 4
  %5 = alloca i32, align 4
  %6 = alloca i32, align 4
  %7 = alloca i32, align 4
  %8 = alloca [1000 x i32], align 16
  %9 = alloca i32, align 4
  %10 = alloca i32, align 4
  %11 = alloca [2000 x i8], align 16
  %12 = alloca [2000 x i8], align 16
  %13 = bitcast [1000 x i32]* %8 to i8*
  call void @llvm.memset.p0i8.i64(i8* align 16 %13, i8 0, i64 4000, i1 false)
  %14 = bitcast [2000 x i8]* %11 to i8*
  call void @llvm.memset.p0i8.i64(i8* align 16 %14, i8 0, i64 2000, i1 false)
  %15 = bitcast [2000 x i8]* %12 to i8*
  call void @llvm.memset.p0i8.i64(i8* align 16 %15, i8 0, i64 2000, i1 false)
  %16 = getelementptr inbounds [2000 x i8], [2000 x i8]* %11, i64 0, i64 0
  %17 = call i32 (i8*, ...) bitcast (i32 (...)* @gets to i32 (i8*, ...)*)(i8* %16)
  %18 = getelementptr inbounds [2000 x i8], [2000 x i8]* %11, i64 0, i64 0
  %19 = call i64 @strlen(i8* %18) #4
  %20 = trunc i64 %19 to i32
  store i32 %20, i32* %1, align 4
  store i32 0, i32* %2, align 4
  br label %21

21:                                               ; preds = %33, %0
  %22 = load i32, i32* %2, align 4
  %23 = load i32, i32* %1, align 4
  %24 = icmp slt i32 %22, %23
  br i1 %24, label %25, label %36

25:                                               ; preds = %21
  %26 = load i32, i32* %2, align 4
  %27 = sext i32 %26 to i64
  %28 = getelementptr inbounds [2000 x i8], [2000 x i8]* %11, i64 0, i64 %27
  %29 = load i8, i8* %28, align 1
  %30 = load i32, i32* %2, align 4
  %31 = sext i32 %30 to i64
  %32 = getelementptr inbounds [2000 x i8], [2000 x i8]* %12, i64 0, i64 %31
  store i8 %29, i8* %32, align 1
  br label %33

33:                                               ; preds = %25
  %34 = load i32, i32* %2, align 4
  %35 = add nsw i32 %34, 1
  store i32 %35, i32* %2, align 4
  br label %21

36:                                               ; preds = %21
  store i32 0, i32* %2, align 4
  br label %37

37:                                               ; preds = %145, %36
  %38 = load i32, i32* %2, align 4
  %39 = load i32, i32* %1, align 4
  %40 = icmp slt i32 %38, %39
  br i1 %40, label %41, label %148

41:                                               ; preds = %37
  store i32 0, i32* %2, align 4
  br label %42

42:                                               ; preds = %141, %41
  %43 = load i32, i32* %2, align 4
  %44 = load i32, i32* %1, align 4
  %45 = icmp slt i32 %43, %44
  br i1 %45, label %46, label %144

46:                                               ; preds = %42
  %47 = load i32, i32* %2, align 4
  %48 = sext i32 %47 to i64
  %49 = getelementptr inbounds [2000 x i8], [2000 x i8]* %11, i64 0, i64 %48
  %50 = load i8, i8* %49, align 1
  %51 = sext i8 %50 to i32
  %52 = icmp sge i32 %51, 65
  br i1 %52, label %53, label %60

53:                                               ; preds = %46
  %54 = load i32, i32* %2, align 4
  %55 = sext i32 %54 to i64
  %56 = getelementptr inbounds [2000 x i8], [2000 x i8]* %11, i64 0, i64 %55
  %57 = load i8, i8* %56, align 1
  %58 = sext i8 %57 to i32
  %59 = icmp sle i32 %58, 90
  br i1 %59, label %74, label %60

60:                                               ; preds = %53, %46
  %61 = load i32, i32* %2, align 4
  %62 = sext i32 %61 to i64
  %63 = getelementptr inbounds [2000 x i8], [2000 x i8]* %11, i64 0, i64 %62
  %64 = load i8, i8* %63, align 1
  %65 = sext i8 %64 to i32
  %66 = icmp sge i32 %65, 97
  br i1 %66, label %67, label %78

67:                                               ; preds = %60
  %68 = load i32, i32* %2, align 4
  %69 = sext i32 %68 to i64
  %70 = getelementptr inbounds [2000 x i8], [2000 x i8]* %11, i64 0, i64 %69
  %71 = load i8, i8* %70, align 1
  %72 = sext i8 %71 to i32
  %73 = icmp sle i32 %72, 122
  br i1 %73, label %74, label %78

74:                                               ; preds = %67, %53
  %75 = load i32, i32* %2, align 4
  %76 = sext i32 %75 to i64
  %77 = getelementptr inbounds [2000 x i8], [2000 x i8]* %11, i64 0, i64 %76
  store i8 0, i8* %77, align 1
  store i32 1, i32* %6, align 4
  br label %82

78:                                               ; preds = %67, %60
  %79 = load i32, i32* %2, align 4
  %80 = sext i32 %79 to i64
  %81 = getelementptr inbounds [1000 x i32], [1000 x i32]* %8, i64 0, i64 %80
  store i32 0, i32* %81, align 4
  store i32 0, i32* %6, align 4
  br label %82

82:                                               ; preds = %78, %74
  %83 = load i32, i32* %6, align 4
  %84 = icmp ne i32 %83, 0
  br i1 %84, label %85, label %132

85:                                               ; preds = %82
  %86 = load i32, i32* %2, align 4
  %87 = add nsw i32 %86, 1
  store i32 %87, i32* %5, align 4
  store i32 1, i32* %4, align 4
  br label %88

88:                                               ; preds = %128, %85
  %89 = load i32, i32* %5, align 4
  %90 = load i32, i32* %1, align 4
  %91 = icmp slt i32 %89, %90
  br i1 %91, label %92, label %131

92:                                               ; preds = %88
  %93 = load i32, i32* %5, align 4
  %94 = sext i32 %93 to i64
  %95 = getelementptr inbounds [2000 x i8], [2000 x i8]* %11, i64 0, i64 %94
  %96 = load i8, i8* %95, align 1
  %97 = sext i8 %96 to i32
  %98 = icmp sge i32 %97, 65
  br i1 %98, label %99, label %106

99:                                               ; preds = %92
  %100 = load i32, i32* %5, align 4
  %101 = sext i32 %100 to i64
  %102 = getelementptr inbounds [2000 x i8], [2000 x i8]* %11, i64 0, i64 %101
  %103 = load i8, i8* %102, align 1
  %104 = sext i8 %103 to i32
  %105 = icmp sle i32 %104, 90
  br i1 %105, label %120, label %106

106:                                              ; preds = %99, %92
  %107 = load i32, i32* %5, align 4
  %108 = sext i32 %107 to i64
  %109 = getelementptr inbounds [2000 x i8], [2000 x i8]* %11, i64 0, i64 %108
  %110 = load i8, i8* %109, align 1
  %111 = sext i8 %110 to i32
  %112 = icmp sge i32 %111, 97
  br i1 %112, label %113, label %126

113:                                              ; preds = %106
  %114 = load i32, i32* %5, align 4
  %115 = sext i32 %114 to i64
  %116 = getelementptr inbounds [2000 x i8], [2000 x i8]* %11, i64 0, i64 %115
  %117 = load i8, i8* %116, align 1
  %118 = sext i8 %117 to i32
  %119 = icmp sle i32 %118, 122
  br i1 %119, label %120, label %126

120:                                              ; preds = %113, %99
  %121 = load i32, i32* %5, align 4
  %122 = sext i32 %121 to i64
  %123 = getelementptr inbounds [2000 x i8], [2000 x i8]* %11, i64 0, i64 %122
  store i8 0, i8* %123, align 1
  %124 = load i32, i32* %4, align 4
  %125 = add nsw i32 %124, 1
  store i32 %125, i32* %4, align 4
  br label %127

126:                                              ; preds = %113, %106
  br label %131

127:                                              ; preds = %120
  br label %128

128:                                              ; preds = %127
  %129 = load i32, i32* %5, align 4
  %130 = add nsw i32 %129, 1
  store i32 %130, i32* %5, align 4
  br label %88

131:                                              ; preds = %126, %88
  br label %132

132:                                              ; preds = %131, %82
  %133 = load i32, i32* %6, align 4
  %134 = icmp ne i32 %133, 0
  br i1 %134, label %135, label %140

135:                                              ; preds = %132
  %136 = load i32, i32* %4, align 4
  %137 = load i32, i32* %2, align 4
  %138 = sext i32 %137 to i64
  %139 = getelementptr inbounds [1000 x i32], [1000 x i32]* %8, i64 0, i64 %138
  store i32 %136, i32* %139, align 4
  br label %140

140:                                              ; preds = %135, %132
  br label %141

141:                                              ; preds = %140
  %142 = load i32, i32* %2, align 4
  %143 = add nsw i32 %142, 1
  store i32 %143, i32* %2, align 4
  br label %42

144:                                              ; preds = %42
  br label %145

145:                                              ; preds = %144
  %146 = load i32, i32* %2, align 4
  %147 = add nsw i32 %146, 1
  store i32 %147, i32* %2, align 4
  br label %37

148:                                              ; preds = %37
  store i32 1, i32* %2, align 4
  %149 = getelementptr inbounds [1000 x i32], [1000 x i32]* %8, i64 0, i64 0
  %150 = load i32, i32* %149, align 16
  store i32 %150, i32* %9, align 4
  br label %151

151:                                              ; preds = %168, %148
  %152 = load i32, i32* %2, align 4
  %153 = icmp slt i32 %152, 1000
  br i1 %153, label %154, label %171

154:                                              ; preds = %151
  %155 = load i32, i32* %2, align 4
  %156 = sext i32 %155 to i64
  %157 = getelementptr inbounds [1000 x i32], [1000 x i32]* %8, i64 0, i64 %156
  %158 = load i32, i32* %157, align 4
  %159 = load i32, i32* %9, align 4
  %160 = icmp sgt i32 %158, %159
  br i1 %160, label %161, label %167

161:                                              ; preds = %154
  %162 = load i32, i32* %2, align 4
  %163 = sext i32 %162 to i64
  %164 = getelementptr inbounds [1000 x i32], [1000 x i32]* %8, i64 0, i64 %163
  %165 = load i32, i32* %164, align 4
  store i32 %165, i32* %9, align 4
  %166 = load i32, i32* %2, align 4
  store i32 %166, i32* %6, align 4
  br label %167

167:                                              ; preds = %161, %154
  br label %168

168:                                              ; preds = %167
  %169 = load i32, i32* %2, align 4
  %170 = add nsw i32 %169, 1
  store i32 %170, i32* %2, align 4
  br label %151

171:                                              ; preds = %151
  %172 = load i32, i32* %6, align 4
  store i32 %172, i32* %2, align 4
  br label %173

173:                                              ; preds = %214, %171
  %174 = load i32, i32* %2, align 4
  %175 = load i32, i32* %1, align 4
  %176 = icmp slt i32 %174, %175
  br i1 %176, label %177, label %217

177:                                              ; preds = %173
  %178 = load i32, i32* %2, align 4
  %179 = sext i32 %178 to i64
  %180 = getelementptr inbounds [2000 x i8], [2000 x i8]* %12, i64 0, i64 %179
  %181 = load i8, i8* %180, align 1
  %182 = sext i8 %181 to i32
  %183 = icmp sge i32 %182, 65
  br i1 %183, label %184, label %191

184:                                              ; preds = %177
  %185 = load i32, i32* %2, align 4
  %186 = sext i32 %185 to i64
  %187 = getelementptr inbounds [2000 x i8], [2000 x i8]* %12, i64 0, i64 %186
  %188 = load i8, i8* %187, align 1
  %189 = sext i8 %188 to i32
  %190 = icmp sle i32 %189, 90
  br i1 %190, label %205, label %191

191:                                              ; preds = %184, %177
  %192 = load i32, i32* %2, align 4
  %193 = sext i32 %192 to i64
  %194 = getelementptr inbounds [2000 x i8], [2000 x i8]* %12, i64 0, i64 %193
  %195 = load i8, i8* %194, align 1
  %196 = sext i8 %195 to i32
  %197 = icmp sge i32 %196, 97
  br i1 %197, label %198, label %212

198:                                              ; preds = %191
  %199 = load i32, i32* %2, align 4
  %200 = sext i32 %199 to i64
  %201 = getelementptr inbounds [2000 x i8], [2000 x i8]* %12, i64 0, i64 %200
  %202 = load i8, i8* %201, align 1
  %203 = sext i8 %202 to i32
  %204 = icmp sle i32 %203, 122
  br i1 %204, label %205, label %212

205:                                              ; preds = %198, %184
  %206 = load i32, i32* %2, align 4
  %207 = sext i32 %206 to i64
  %208 = getelementptr inbounds [2000 x i8], [2000 x i8]* %12, i64 0, i64 %207
  %209 = load i8, i8* %208, align 1
  %210 = sext i8 %209 to i32
  %211 = call i32 (i8*, ...) @printf(i8* getelementptr inbounds ([3 x i8], [3 x i8]* @.str, i64 0, i64 0), i32 %210)
  br label %213

212:                                              ; preds = %198, %191
  br label %217

213:                                              ; preds = %205
  br label %214

214:                                              ; preds = %213
  %215 = load i32, i32* %2, align 4
  %216 = add nsw i32 %215, 1
  store i32 %216, i32* %2, align 4
  br label %173

217:                                              ; preds = %212, %173
  %218 = call i32 (i8*, ...) @printf(i8* getelementptr inbounds ([2 x i8], [2 x i8]* @.str.1, i64 0, i64 0))
  store i32 1, i32* %2, align 4
  %219 = getelementptr inbounds [1000 x i32], [1000 x i32]* %8, i64 0, i64 0
  %220 = load i32, i32* %219, align 16
  store i32 %220, i32* %10, align 4
  store i32 0, i32* %7, align 4
  br label %221

221:                                              ; preds = %244, %217
  %222 = load i32, i32* %2, align 4
  %223 = icmp slt i32 %222, 1000
  br i1 %223, label %224, label %247

224:                                              ; preds = %221
  %225 = load i32, i32* %2, align 4
  %226 = sext i32 %225 to i64
  %227 = getelementptr inbounds [1000 x i32], [1000 x i32]* %8, i64 0, i64 %226
  %228 = load i32, i32* %227, align 4
  %229 = load i32, i32* %10, align 4
  %230 = icmp slt i32 %228, %229
  br i1 %230, label %231, label %243

231:                                              ; preds = %224
  %232 = load i32, i32* %2, align 4
  %233 = sext i32 %232 to i64
  %234 = getelementptr inbounds [1000 x i32], [1000 x i32]* %8, i64 0, i64 %233
  %235 = load i32, i32* %234, align 4
  %236 = icmp ne i32 %235, 0
  br i1 %236, label %237, label %243

237:                                              ; preds = %231
  %238 = load i32, i32* %2, align 4
  %239 = sext i32 %238 to i64
  %240 = getelementptr inbounds [1000 x i32], [1000 x i32]* %8, i64 0, i64 %239
  %241 = load i32, i32* %240, align 4
  store i32 %241, i32* %10, align 4
  %242 = load i32, i32* %2, align 4
  store i32 %242, i32* %7, align 4
  br label %243

243:                                              ; preds = %237, %231, %224
  br label %244

244:                                              ; preds = %243
  %245 = load i32, i32* %2, align 4
  %246 = add nsw i32 %245, 1
  store i32 %246, i32* %2, align 4
  br label %221

247:                                              ; preds = %221
  %248 = load i32, i32* %7, align 4
  store i32 %248, i32* %2, align 4
  br label %249

249:                                              ; preds = %290, %247
  %250 = load i32, i32* %2, align 4
  %251 = load i32, i32* %1, align 4
  %252 = icmp slt i32 %250, %251
  br i1 %252, label %253, label %293

253:                                              ; preds = %249
  %254 = load i32, i32* %2, align 4
  %255 = sext i32 %254 to i64
  %256 = getelementptr inbounds [2000 x i8], [2000 x i8]* %12, i64 0, i64 %255
  %257 = load i8, i8* %256, align 1
  %258 = sext i8 %257 to i32
  %259 = icmp sge i32 %258, 65
  br i1 %259, label %260, label %267

260:                                              ; preds = %253
  %261 = load i32, i32* %2, align 4
  %262 = sext i32 %261 to i64
  %263 = getelementptr inbounds [2000 x i8], [2000 x i8]* %12, i64 0, i64 %262
  %264 = load i8, i8* %263, align 1
  %265 = sext i8 %264 to i32
  %266 = icmp sle i32 %265, 90
  br i1 %266, label %281, label %267

267:                                              ; preds = %260, %253
  %268 = load i32, i32* %2, align 4
  %269 = sext i32 %268 to i64
  %270 = getelementptr inbounds [2000 x i8], [2000 x i8]* %12, i64 0, i64 %269
  %271 = load i8, i8* %270, align 1
  %272 = sext i8 %271 to i32
  %273 = icmp sge i32 %272, 97
  br i1 %273, label %274, label %288

274:                                              ; preds = %267
  %275 = load i32, i32* %2, align 4
  %276 = sext i32 %275 to i64
  %277 = getelementptr inbounds [2000 x i8], [2000 x i8]* %12, i64 0, i64 %276
  %278 = load i8, i8* %277, align 1
  %279 = sext i8 %278 to i32
  %280 = icmp sle i32 %279, 122
  br i1 %280, label %281, label %288

281:                                              ; preds = %274, %260
  %282 = load i32, i32* %2, align 4
  %283 = sext i32 %282 to i64
  %284 = getelementptr inbounds [2000 x i8], [2000 x i8]* %12, i64 0, i64 %283
  %285 = load i8, i8* %284, align 1
  %286 = sext i8 %285 to i32
  %287 = call i32 (i8*, ...) @printf(i8* getelementptr inbounds ([3 x i8], [3 x i8]* @.str, i64 0, i64 0), i32 %286)
  br label %289

288:                                              ; preds = %274, %267
  br label %293

289:                                              ; preds = %281
  br label %290

290:                                              ; preds = %289
  %291 = load i32, i32* %2, align 4
  %292 = add nsw i32 %291, 1
  store i32 %292, i32* %2, align 4
  br label %249

293:                                              ; preds = %288, %249
  ret void
}